target datalayout = "e-m:e-p270:32:32-p271:32:32-p272:64:64-i64:64-i128:128-f80:128-n8:16:32:64-S128"
target triple = "x86_64-pc-linux-gnu"

%struct.pollfd = type { i32, i16, i16 }
%struct.timeval = type { i64, i64 }

; Function Attrs: nounwind uwtable
define i64 @PQgetCurrentTimeUSec() #0 {
  %1 = alloca %struct.timeval, align 8
  call void @llvm.lifetime.start.p0(i64 16, ptr %1) #10
  %2 = call i32 @gettimeofday(ptr noundef %1, ptr noundef null) #10
  %3 = getelementptr inbounds nuw %struct.timeval, ptr %1, i32 0, i32 0
  %4 = load i64, ptr %3, align 8
  %5 = mul i64 %4, 1000000
  %6 = getelementptr inbounds nuw %struct.timeval, ptr %1, i32 0, i32 1
  %7 = load i64, ptr %6, align 8
  %8 = add i64 %5, %7
  call void @llvm.lifetime.end.p0(i64 16, ptr %1) #10
  ret i64 %8
}

; Function Attrs: nounwind uwtable
define i32 @PQsocketPoll(i32 noundef %0, i32 noundef %1, i32 noundef %2, i64 noundef %3) #0 {
  %5 = alloca i32, align 4
  %6 = alloca i32, align 4
  %7 = alloca i32, align 4
  %8 = alloca i32, align 4
  %9 = alloca i64, align 8
  %10 = alloca %struct.pollfd, align 4
  %11 = alloca i32, align 4
  %12 = alloca i32, align 4
  %13 = alloca i64, align 8
  store i32 %0, ptr %6, align 4
  store i32 %1, ptr %7, align 4
  store i32 %2, ptr %8, align 4
  store i64 %3, ptr %9, align 8
  call void @llvm.lifetime.start.p0(i64 8, ptr %10) #10
  call void @llvm.lifetime.start.p0(i64 4, ptr %11) #10
  %14 = load i32, ptr %7, align 4
  %15 = icmp ne i32 %14, 0
  br i1 %15, label %20, label %16

16:                                               ; preds = %4
  %17 = load i32, ptr %8, align 4
  %18 = icmp ne i32 %17, 0
  br i1 %18, label %20, label %19

19:                                               ; preds = %16
  store i32 0, ptr %5, align 4
  store i32 1, ptr %12, align 4
  br label %67

20:                                               ; preds = %16, %4
  %21 = load i32, ptr %6, align 4
  %22 = getelementptr inbounds nuw %struct.pollfd, ptr %10, i32 0, i32 0
  store i32 %21, ptr %22, align 4
  %23 = getelementptr inbounds nuw %struct.pollfd, ptr %10, i32 0, i32 1
  store i16 8, ptr %23, align 4
  %24 = getelementptr inbounds nuw %struct.pollfd, ptr %10, i32 0, i32 2
  store i16 0, ptr %24, align 2
  %25 = load i32, ptr %7, align 4
  %26 = icmp ne i32 %25, 0
  br i1 %26, label %27, label %33

27:                                               ; preds = %20
  %28 = getelementptr inbounds nuw %struct.pollfd, ptr %10, i32 0, i32 1
  %29 = load i16, ptr %28, align 4
  %30 = sext i16 %29 to i32
  %31 = or i32 %30, 1
  %32 = trunc i32 %31 to i16
  store i16 %32, ptr %28, align 4
  br label %33

33:                                               ; preds = %27, %20
  %34 = load i32, ptr %8, align 4
  %35 = icmp ne i32 %34, 0
  br i1 %35, label %36, label %42

36:                                               ; preds = %33
  %37 = getelementptr inbounds nuw %struct.pollfd, ptr %10, i32 0, i32 1
  %38 = load i16, ptr %37, align 4
  %39 = sext i16 %38 to i32
  %40 = or i32 %39, 4
  %41 = trunc i32 %40 to i16
  store i16 %41, ptr %37, align 4
  br label %42

42:                                               ; preds = %36, %33
  %43 = load i64, ptr %9, align 8
  %44 = icmp eq i64 %43, -1
  br i1 %44, label %45, label %46

45:                                               ; preds = %42
  store i32 -1, ptr %11, align 4
  br label %64

46:                                               ; preds = %42
  %47 = load i64, ptr %9, align 8
  %48 = icmp eq i64 %47, 0
  br i1 %48, label %49, label %50

49:                                               ; preds = %46
  store i32 0, ptr %11, align 4
  br label %63

50:                                               ; preds = %46
  call void @llvm.lifetime.start.p0(i64 8, ptr %13) #10
  %51 = call i64 @PQgetCurrentTimeUSec()
  store i64 %51, ptr %13, align 8
  %52 = load i64, ptr %9, align 8
  %53 = load i64, ptr %13, align 8
  %54 = icmp sgt i64 %52, %53
  br i1 %54, label %55, label %61

55:                                               ; preds = %50
  %56 = load i64, ptr %9, align 8
  %57 = load i64, ptr %13, align 8
  %58 = sub i64 %56, %57
  %59 = sdiv i64 %58, 1000
  %60 = trunc i64 %59 to i32
  store i32 %60, ptr %11, align 4
  br label %62

61:                                               ; preds = %50
  store i32 0, ptr %11, align 4
  br label %62

62:                                               ; preds = %61, %55
  call void @llvm.lifetime.end.p0(i64 8, ptr %13) #10
  br label %63

63:                                               ; preds = %62, %49
  br label %64

64:                                               ; preds = %63, %45
  %65 = load i32, ptr %11, align 4
  %66 = call i32 @poll(ptr noundef %10, i64 noundef 1, i32 noundef %65)
  store i32 %66, ptr %5, align 4
  store i32 1, ptr %12, align 4
  br label %67

67:                                               ; preds = %64, %19
  call void @llvm.lifetime.end.p0(i64 4, ptr %11) #10
  call void @llvm.lifetime.end.p0(i64 8, ptr %10) #10
  %68 = load i32, ptr %5, align 4
  ret i32 %68
}