; Function Attrs: nounwind uwtable
define i32 @PQsocketPoll(i32 noundef %0, i32 noundef %1, i32 noundef %2, i64 noundef %3) local_unnamed_addr #2 {
  %5 = alloca %struct.timeval, align 8
  %6 = alloca %struct.pollfd, align 4
  call void @llvm.lifetime.start.p0(i64 8, ptr nonnull %6) #19
  %7 = or i32 %2, %1
  %or.cond.not = icmp eq i32 %7, 0
  br i1 %or.cond.not, label %30, label %8

8:                                                ; preds = %4
  store i32 %0, ptr %6, align 4
  %9 = getelementptr inbounds nuw i8, ptr %6, i64 4
  store i16 8, ptr %9, align 4
  %10 = getelementptr inbounds nuw i8, ptr %6, i64 6
  store i16 0, ptr %10, align 2
  %11 = or i32 %1, %2
  %.not18 = icmp eq i32 %11, 0
  br i1 %.not18, label %14, label %12

12:                                               ; preds = %8
  %.not17.not = icmp eq i32 %2, 0
  %.not.not = icmp eq i32 %1, 0
  %13 = select i1 %.not.not, i16 12, i16 13
  %simplifycfg.merge = select i1 %.not17.not, i16 9, i16 %13
  store i16 %simplifycfg.merge, ptr %9, align 4
  br label %14

14:                                               ; preds = %8, %12
  switch i64 %3, label %16 [
    i64 -1, label %28
    i64 0, label %15
  ]

15:                                               ; preds = %14
  br label %28

16:                                               ; preds = %14
  call void @llvm.lifetime.start.p0(i64 16, ptr nonnull %5) #19
  %17 = call i32 @gettimeofday(ptr noundef nonnull %5, ptr noundef null) #19
  %18 = load i64, ptr %5, align 8
  %19 = mul i64 %18, 1000000
  %20 = getelementptr inbounds nuw i8, ptr %5, i64 8
  %21 = load i64, ptr %20, align 8
  %22 = add i64 %19, %21
  call void @llvm.lifetime.end.p0(i64 16, ptr nonnull %5) #19
  %23 = icmp sgt i64 %3, %22
  br i1 %23, label %24, label %28

24:                                               ; preds = %16
  %25 = sub i64 %3, %22
  %26 = sdiv i64 %25, 1000
  %27 = trunc i64 %26 to i32
  br label %28

28:                                               ; preds = %24, %16, %14, %15
  %.014 = phi i32 [ 0, %15 ], [ -1, %14 ], [ %27, %24 ], [ 0, %16 ]
  %29 = call i32 @poll(ptr noundef nonnull %6, i64 noundef 1, i32 noundef %.014) #19
  br label %30

30:                                               ; preds = %4, %28
  %.0 = phi i32 [ %29, %28 ], [ 0, %4 ]
  call void @llvm.lifetime.end.p0(i64 8, ptr nonnull %6) #19
  ret i32 %.0
}